target datalayout = "e-m:e-p270:32:32-p271:32:32-p272:64:64-i64:64-i128:128-f80:128-n8:16:32:64-S128"
target triple = "x86_64-pc-linux-gnu"

%struct.AVFilterContext = type { ptr, ptr, ptr, ptr, ptr, i32, ptr, ptr, i32, ptr, ptr, i32, i32, ptr, ptr, ptr, ptr, i32, ptr, i32, i32 }
%struct.EBUR128Context = type { ptr, i32, double, ptr, double, ptr, ptr, ptr, ptr, i32, i32, i32, i32, %struct.rect, %struct.rect, %struct.rect, ptr, i32, i32, i32, i32, i32, ptr, i32, ptr, i32, i32, i32, ptr, ptr, ptr, ptr, [3 x double], [3 x double], [3 x double], [3 x double], %struct.integrator, %struct.integrator, double, double, double, double, i32, i32, i32, double, i32, i32, i32 }
%struct.rect = type { i32, i32, i32, i32 }
%struct.integrator = type { ptr, i32, i32, ptr, i32, double, double, i32, ptr }
%struct.AVFilterFormatsConfig = type { ptr, ptr, ptr, ptr, ptr }
%struct.AVFilterLink = type { ptr, ptr, ptr, ptr, i32, i32, i32, i32, %struct.AVRational, i32, i32, i32, %struct.AVChannelLayout, %struct.AVRational, ptr, i32, %struct.AVFilterFormatsConfig, %struct.AVFilterFormatsConfig }
%struct.AVChannelLayout = type { i32, i32, %union.anon.1, ptr }
%union.anon.1 = type { i64 }
%struct.AVRational = type { i32, i32 }

; Function Attrs: nounwind uwtable
define internal i32 @config_audio_input(ptr noundef %0) #1 {
  %2 = alloca ptr, align 8
  %3 = alloca ptr, align 8
  %4 = alloca ptr, align 8
  %5 = alloca double, align 8
  %6 = alloca double, align 8
  %7 = alloca double, align 8
  %8 = alloca double, align 8
  %9 = alloca double, align 8
  %10 = alloca double, align 8
  %11 = alloca double, align 8
  store ptr %0, ptr %2, align 8, !tbaa !75
  call void @llvm.lifetime.start.p0(i64 8, ptr %3) #14
  %12 = load ptr, ptr %2, align 8, !tbaa !75
  %13 = getelementptr inbounds nuw %struct.AVFilterLink, ptr %12, i32 0, i32 2
  %14 = load ptr, ptr %13, align 8, !tbaa !85
  store ptr %14, ptr %3, align 8, !tbaa !4
  call void @llvm.lifetime.start.p0(i64 8, ptr %4) #14
  %15 = load ptr, ptr %3, align 8, !tbaa !4
  %16 = getelementptr inbounds nuw %struct.AVFilterContext, ptr %15, i32 0, i32 9
  %17 = load ptr, ptr %16, align 8, !tbaa !9
  store ptr %17, ptr %4, align 8, !tbaa !22
  call void @llvm.lifetime.start.p0(i64 8, ptr %5) #14
  store double 0x409A47E5D678A648, ptr %5, align 8, !tbaa !92
  call void @llvm.lifetime.start.p0(i64 8, ptr %6) #14
  store double 0x400FFFAE226F6083, ptr %6, align 8, !tbaa !92
  call void @llvm.lifetime.start.p0(i64 8, ptr %7) #14
  store double 0x3FE6A12DF668776C, ptr %7, align 8, !tbaa !92
  call void @llvm.lifetime.start.p0(i64 8, ptr %8) #14
  %18 = load double, ptr %5, align 8, !tbaa !92
  %19 = fmul nsz double 0x400921FB54442D18, %18
  %20 = load ptr, ptr %2, align 8, !tbaa !75
  %21 = getelementptr inbounds nuw %struct.AVFilterLink, ptr %20, i32 0, i32 11
  %22 = load i32, ptr %21, align 8, !tbaa !93
  %23 = sitofp i32 %22 to double
  %24 = fdiv nsz double %19, %23
  %25 = call nsz double @llvm.tan.f64(double %24)
  store double %25, ptr %8, align 8, !tbaa !92
  call void @llvm.lifetime.start.p0(i64 8, ptr %9) #14
  %26 = load double, ptr %6, align 8, !tbaa !92
  %27 = fdiv nsz double %26, 2.000000e+01
  %28 = call nsz double @llvm.pow.f64(double 1.000000e+01, double %27)
  store double %28, ptr %9, align 8, !tbaa !92
  call void @llvm.lifetime.start.p0(i64 8, ptr %10) #14
  %29 = load double, ptr %9, align 8, !tbaa !92
  %30 = call nsz double @llvm.pow.f64(double %29, double 0x3FDFFA8A59790F8D)
  store double %30, ptr %10, align 8, !tbaa !92
  call void @llvm.lifetime.start.p0(i64 8, ptr %11) #14
  %31 = load double, ptr %8, align 8, !tbaa !92
  %32 = load double, ptr %7, align 8, !tbaa !92
  %33 = fdiv nsz double %31, %32
  %34 = fadd nsz double 1.000000e+00, %33
  %35 = load double, ptr %8, align 8, !tbaa !92
  %36 = load double, ptr %8, align 8, !tbaa !92
  %37 = call nsz double @llvm.fmuladd.f64(double %35, double %36, double %34)
  store double %37, ptr %11, align 8, !tbaa !92
  %38 = load double, ptr %9, align 8, !tbaa !92
  %39 = load double, ptr %10, align 8, !tbaa !92
  %40 = load double, ptr %8, align 8, !tbaa !92
  %41 = fmul nsz double %39, %40
  %42 = load double, ptr %7, align 8, !tbaa !92
  %43 = fdiv nsz double %41, %42
  %44 = fadd nsz double %38, %43
  %45 = load double, ptr %8, align 8, !tbaa !92
  %46 = load double, ptr %8, align 8, !tbaa !92
  %47 = call nsz double @llvm.fmuladd.f64(double %45, double %46, double %44)
  %48 = load double, ptr %11, align 8, !tbaa !92
  %49 = fdiv nsz double %47, %48
  %50 = load ptr, ptr %4, align 8, !tbaa !22
  %51 = getelementptr inbounds nuw %struct.EBUR128Context, ptr %50, i32 0, i32 32
  %52 = getelementptr inbounds [3 x double], ptr %51, i64 0, i64 0
  store double %49, ptr %52, align 8, !tbaa !92
  %53 = load double, ptr %8, align 8, !tbaa !92
  %54 = load double, ptr %8, align 8, !tbaa !92
  %55 = load double, ptr %9, align 8, !tbaa !92
  %56 = fneg nsz double %55
  %57 = call nsz double @llvm.fmuladd.f64(double %53, double %54, double %56)
  %58 = fmul nsz double 2.000000e+00, %57
  %59 = load double, ptr %11, align 8, !tbaa !92
  %60 = fdiv nsz double %58, %59
  %61 = load ptr, ptr %4, align 8, !tbaa !22
  %62 = getelementptr inbounds nuw %struct.EBUR128Context, ptr %61, i32 0, i32 32
  %63 = getelementptr inbounds [3 x double], ptr %62, i64 0, i64 1
  store double %60, ptr %63, align 8, !tbaa !92
  %64 = load double, ptr %9, align 8, !tbaa !92
  %65 = load double, ptr %10, align 8, !tbaa !92
  %66 = load double, ptr %8, align 8, !tbaa !92
  %67 = fmul nsz double %65, %66
  %68 = load double, ptr %7, align 8, !tbaa !92
  %69 = fdiv nsz double %67, %68
  %70 = fsub nsz double %64, %69
  %71 = load double, ptr %8, align 8, !tbaa !92
  %72 = load double, ptr %8, align 8, !tbaa !92
  %73 = call nsz double @llvm.fmuladd.f64(double %71, double %72, double %70)
  %74 = load double, ptr %11, align 8, !tbaa !92
  %75 = fdiv nsz double %73, %74
  %76 = load ptr, ptr %4, align 8, !tbaa !22
  %77 = getelementptr inbounds nuw %struct.EBUR128Context, ptr %76, i32 0, i32 32
  %78 = getelementptr inbounds [3 x double], ptr %77, i64 0, i64 2
  store double %75, ptr %78, align 8, !tbaa !92
  %79 = load double, ptr %8, align 8, !tbaa !92
  %80 = load double, ptr %8, align 8, !tbaa !92
  %81 = call nsz double @llvm.fmuladd.f64(double %79, double %80, double -1.000000e+00)
  %82 = fmul nsz double 2.000000e+00, %81
  %83 = load double, ptr %11, align 8, !tbaa !92
  %84 = fdiv nsz double %82, %83
  %85 = load ptr, ptr %4, align 8, !tbaa !22
  %86 = getelementptr inbounds nuw %struct.EBUR128Context, ptr %85, i32 0, i32 33
  %87 = getelementptr inbounds [3 x double], ptr %86, i64 0, i64 1
  store double %84, ptr %87, align 8, !tbaa !92
  %88 = load double, ptr %8, align 8, !tbaa !92
  %89 = load double, ptr %7, align 8, !tbaa !92
  %90 = fdiv nsz double %88, %89
  %91 = fsub nsz double 1.000000e+00, %90
  %92 = load double, ptr %8, align 8, !tbaa !92
  %93 = load double, ptr %8, align 8, !tbaa !92
  %94 = call nsz double @llvm.fmuladd.f64(double %92, double %93, double %91)
  %95 = load double, ptr %11, align 8, !tbaa !92
  %96 = fdiv nsz double %94, %95
  %97 = load ptr, ptr %4, align 8, !tbaa !22
  %98 = getelementptr inbounds nuw %struct.EBUR128Context, ptr %97, i32 0, i32 33
  %99 = getelementptr inbounds [3 x double], ptr %98, i64 0, i64 2
  store double %96, ptr %99, align 8, !tbaa !92
  store double 0x404311571C130AF0, ptr %5, align 8, !tbaa !92
  store double 0x3FE002ADD8D38A3C, ptr %7, align 8, !tbaa !92
  %100 = load double, ptr %5, align 8, !tbaa !92
  %101 = fmul nsz double 0x400921FB54442D18, %100
  %102 = load ptr, ptr %2, align 8, !tbaa !75
  %103 = getelementptr inbounds nuw %struct.AVFilterLink, ptr %102, i32 0, i32 11
  %104 = load i32, ptr %103, align 8, !tbaa !93
  %105 = sitofp i32 %104 to double
  %106 = fdiv nsz double %101, %105
  %107 = call nsz double @llvm.tan.f64(double %106)
  store double %107, ptr %8, align 8, !tbaa !92
  %108 = load ptr, ptr %4, align 8, !tbaa !22
  %109 = getelementptr inbounds nuw %struct.EBUR128Context, ptr %108, i32 0, i32 34
  %110 = getelementptr inbounds [3 x double], ptr %109, i64 0, i64 0
  store double 1.000000e+00, ptr %110, align 8, !tbaa !92
  %111 = load ptr, ptr %4, align 8, !tbaa !22
  %112 = getelementptr inbounds nuw %struct.EBUR128Context, ptr %111, i32 0, i32 34
  %113 = getelementptr inbounds [3 x double], ptr %112, i64 0, i64 1
  store double -2.000000e+00, ptr %113, align 8, !tbaa !92
  %114 = load ptr, ptr %4, align 8, !tbaa !22
  %115 = getelementptr inbounds nuw %struct.EBUR128Context, ptr %114, i32 0, i32 34
  %116 = getelementptr inbounds [3 x double], ptr %115, i64 0, i64 2
  store double 1.000000e+00, ptr %116, align 8, !tbaa !92
  %117 = load double, ptr %8, align 8, !tbaa !92
  %118 = load double, ptr %8, align 8, !tbaa !92
  %119 = call nsz double @llvm.fmuladd.f64(double %117, double %118, double -1.000000e+00)
  %120 = fmul nsz double 2.000000e+00, %119
  %121 = load double, ptr %8, align 8, !tbaa !92
  %122 = load double, ptr %7, align 8, !tbaa !92
  %123 = fdiv nsz double %121, %122
  %124 = fadd nsz double 1.000000e+00, %123
  %125 = load double, ptr %8, align 8, !tbaa !92
  %126 = load double, ptr %8, align 8, !tbaa !92
  %127 = call nsz double @llvm.fmuladd.f64(double %125, double %126, double %124)
  %128 = fdiv nsz double %120, %127
  %129 = load ptr, ptr %4, align 8, !tbaa !22
  %130 = getelementptr inbounds nuw %struct.EBUR128Context, ptr %129, i32 0, i32 35
  %131 = getelementptr inbounds [3 x double], ptr %130, i64 0, i64 1
  store double %128, ptr %131, align 8, !tbaa !92
  %132 = load double, ptr %8, align 8, !tbaa !92
  %133 = load double, ptr %7, align 8, !tbaa !92
  %134 = fdiv nsz double %132, %133
  %135 = fsub nsz double 1.000000e+00, %134
  %136 = load double, ptr %8, align 8, !tbaa !92
  %137 = load double, ptr %8, align 8, !tbaa !92
  %138 = call nsz double @llvm.fmuladd.f64(double %136, double %137, double %135)
  %139 = load double, ptr %8, align 8, !tbaa !92
  %140 = load double, ptr %7, align 8, !tbaa !92
  %141 = fdiv nsz double %139, %140
  %142 = fadd nsz double 1.000000e+00, %141
  %143 = load double, ptr %8, align 8, !tbaa !92
  %144 = load double, ptr %8, align 8, !tbaa !92
  %145 = call nsz double @llvm.fmuladd.f64(double %143, double %144, double %142)
  %146 = fdiv nsz double %138, %145
  %147 = load ptr, ptr %4, align 8, !tbaa !22
  %148 = getelementptr inbounds nuw %struct.EBUR128Context, ptr %147, i32 0, i32 35
  %149 = getelementptr inbounds [3 x double], ptr %148, i64 0, i64 2
  store double %146, ptr %149, align 8, !tbaa !92
  %150 = load ptr, ptr %4, align 8, !tbaa !22
  %151 = getelementptr inbounds nuw %struct.EBUR128Context, ptr %150, i32 0, i32 43
  %152 = load i32, ptr %151, align 4, !tbaa !35
  %153 = icmp ne i32 %152, 0
  br i1 %153, label %160, label %154

154:                                              ; preds = %1
  %155 = load ptr, ptr %4, align 8, !tbaa !22
  %156 = getelementptr inbounds nuw %struct.EBUR128Context, ptr %155, i32 0, i32 1
  %157 = load i32, ptr %156, align 8, !tbaa !61
  %158 = and i32 %157, 4
  %159 = icmp ne i32 %158, 0
  br i1 %159, label %160, label %176

160:                                              ; preds = %154, %1
  %161 = load ptr, ptr %2, align 8, !tbaa !75
  %162 = getelementptr inbounds nuw %struct.AVFilterLink, ptr %161, i32 0, i32 11
  %163 = load i32, ptr %162, align 8, !tbaa !93
  %164 = sdiv i32 %163, 10
  %165 = icmp sgt i32 %164, 1
  br i1 %165, label %166, label %171

166:                                              ; preds = %160
  %167 = load ptr, ptr %2, align 8, !tbaa !75
  %168 = getelementptr inbounds nuw %struct.AVFilterLink, ptr %167, i32 0, i32 11
  %169 = load i32, ptr %168, align 8, !tbaa !93
  %170 = sdiv i32 %169, 10
  br label %172

171:                                              ; preds = %160
  br label %172

172:                                              ; preds = %171, %166
  %173 = phi i32 [ %170, %166 ], [ 1, %171 ]
  %174 = load ptr, ptr %4, align 8, !tbaa !22
  %175 = getelementptr inbounds nuw %struct.EBUR128Context, ptr %174, i32 0, i32 26
  store i32 %173, ptr %175, align 4, !tbaa !79
  br label %176

176:                                              ; preds = %172, %154
  call void @llvm.lifetime.end.p0(i64 8, ptr %11) #14
  call void @llvm.lifetime.end.p0(i64 8, ptr %10) #14
  call void @llvm.lifetime.end.p0(i64 8, ptr %9) #14
  call void @llvm.lifetime.end.p0(i64 8, ptr %8) #14
  call void @llvm.lifetime.end.p0(i64 8, ptr %7) #14
  call void @llvm.lifetime.end.p0(i64 8, ptr %6) #14
  call void @llvm.lifetime.end.p0(i64 8, ptr %5) #14
  call void @llvm.lifetime.end.p0(i64 8, ptr %4) #14
  call void @llvm.lifetime.end.p0(i64 8, ptr %3) #14
  ret i32 0
}