; Function Attrs: mustprogress nofree norecurse nosync nounwind willreturn memory(readwrite, inaccessiblemem: none) uwtable
define internal noundef i32 @config_audio_input(ptr noundef readonly captures(none) %0) #2 {
  %2 = getelementptr inbounds nuw i8, ptr %0, i64 16
  %3 = load ptr, ptr %2, align 8, !tbaa !64
  %4 = getelementptr inbounds nuw i8, ptr %3, i64 72
  %5 = load ptr, ptr %4, align 8, !tbaa !4
  %6 = getelementptr inbounds nuw i8, ptr %0, i64 64
  %7 = load i32, ptr %6, align 8, !tbaa !105
  %8 = sitofp i32 %7 to double
  %9 = fdiv nsz double 0x40B4A4141DBAF1BA, %8
  %10 = tail call nsz double @llvm.tan.f64(double %9)
  %11 = fdiv nsz double %10, 0x3FE6A12DF668776C
  %12 = fadd nsz double %11, 1.000000e+00
  %13 = tail call nsz double @llvm.fmuladd.f64(double %10, double %10, double %12)
  %14 = fmul nsz double %10, 0x3FF423B88EE23B99
  %15 = fdiv nsz double %14, 0x3FE6A12DF668776C
  %16 = fadd nsz double %15, 0x3FF95B9B16BF11C6
  %17 = tail call nsz double @llvm.fmuladd.f64(double %10, double %10, double %16)
  %18 = fdiv nsz double %17, %13
  %19 = getelementptr inbounds nuw i8, ptr %5, i64 240
  store double %18, ptr %19, align 8, !tbaa !83
  %20 = tail call nsz double @llvm.fmuladd.f64(double %10, double %10, double 0xBFF95B9B16BF11C6)
  %21 = fmul nsz double %20, 2.000000e+00
  %22 = fdiv nsz double %21, %13
  %23 = getelementptr inbounds nuw i8, ptr %5, i64 248
  store double %22, ptr %23, align 8, !tbaa !83
  %24 = fsub nsz double 0x3FF95B9B16BF11C6, %15
  %25 = tail call nsz double @llvm.fmuladd.f64(double %10, double %10, double %24)
  %26 = fdiv nsz double %25, %13
  %27 = getelementptr inbounds nuw i8, ptr %5, i64 256
  store double %26, ptr %27, align 8, !tbaa !83
  %28 = tail call nsz double @llvm.fmuladd.f64(double %10, double %10, double -1.000000e+00)
  %29 = fmul nsz double %28, 2.000000e+00
  %30 = fdiv nsz double %29, %13
  %31 = getelementptr inbounds nuw i8, ptr %5, i64 272
  store double %30, ptr %31, align 8, !tbaa !83
  %32 = fsub nsz double 1.000000e+00, %11
  %33 = tail call nsz double @llvm.fmuladd.f64(double %10, double %10, double %32)
  %34 = fdiv nsz double %33, %13
  %35 = getelementptr inbounds nuw i8, ptr %5, i64 280
  store double %34, ptr %35, align 8, !tbaa !83
  %36 = fdiv nsz double 0x405DF39763FA798B, %8
  %37 = tail call nsz double @llvm.tan.f64(double %36)
  %38 = getelementptr inbounds nuw i8, ptr %5, i64 288
  store double 1.000000e+00, ptr %38, align 8, !tbaa !83
  %39 = getelementptr inbounds nuw i8, ptr %5, i64 296
  store double -2.000000e+00, ptr %39, align 8, !tbaa !83
  %40 = getelementptr inbounds nuw i8, ptr %5, i64 304
  store double 1.000000e+00, ptr %40, align 8, !tbaa !83
  %41 = tail call nsz double @llvm.fmuladd.f64(double %37, double %37, double -1.000000e+00)
  %42 = fmul nsz double %41, 2.000000e+00
  %43 = fdiv nsz double %37, 0x3FE002ADD8D38A3C
  %44 = fadd nsz double %43, 1.000000e+00
  %45 = tail call nsz double @llvm.fmuladd.f64(double %37, double %37, double %44)
  %46 = fdiv nsz double %42, %45
  %47 = getelementptr inbounds nuw i8, ptr %5, i64 320
  store double %46, ptr %47, align 8, !tbaa !83
  %48 = fsub nsz double 1.000000e+00, %43
  %49 = tail call nsz double @llvm.fmuladd.f64(double %37, double %37, double %48)
  %50 = fdiv nsz double %49, %45
  %51 = getelementptr inbounds nuw i8, ptr %5, i64 328
  store double %50, ptr %51, align 8, !tbaa !83
  %52 = getelementptr inbounds nuw i8, ptr %5, i64 500
  %53 = load i32, ptr %52, align 4, !tbaa !31
  %.not = icmp eq i32 %53, 0
  br i1 %.not, label %54, label %58

54:                                               ; preds = %1
  %55 = getelementptr inbounds nuw i8, ptr %5, i64 8
  %56 = load i32, ptr %55, align 8, !tbaa !48
  %57 = and i32 %56, 4
  %.not67 = icmp eq i32 %57, 0
  br i1 %.not67, label %63, label %58

58:                                               ; preds = %54, %1
  %59 = icmp sgt i32 %7, 19
  %60 = sdiv i32 %7, 10
  %61 = select i1 %59, i32 %60, i32 1
  %62 = getelementptr inbounds nuw i8, ptr %5, i64 196
  store i32 %61, ptr %62, align 4, !tbaa !62
  br label %63

63:                                               ; preds = %58, %54
  ret i32 0
}